ARM GAS  /tmp/cch6bb4i.s 			page 1


   1              		.cpu cortex-m4
   2              		.arch armv7e-m
   3              		.fpu fpv4-sp-d16
   4              		.eabi_attribute 27, 1
   5              		.eabi_attribute 28, 1
   6              		.eabi_attribute 20, 1
   7              		.eabi_attribute 21, 1
   8              		.eabi_attribute 23, 3
   9              		.eabi_attribute 24, 1
  10              		.eabi_attribute 25, 1
  11              		.eabi_attribute 26, 1
  12              		.eabi_attribute 30, 1
  13              		.eabi_attribute 34, 1
  14              		.eabi_attribute 18, 4
  15              		.file	"neural_main.c"
  16              		.text
  17              	.Ltext0:
  18              		.cfi_sections	.debug_frame
  19              		.file 1 "neural_main.c"
  20              		.section	.text.delay_ms,"ax",%progbits
  21              		.align	1
  22              		.global	delay_ms
  23              		.syntax unified
  24              		.thumb
  25              		.thumb_func
  27              	delay_ms:
  28              	.LVL0:
  29              	.LFB0:
   1:neural_main.c **** // Working STM32F446RE Neural Network
   2:neural_main.c **** #include "../output/model.h"
   3:neural_main.c **** 
   4:neural_main.c **** // Test MNIST pattern
   5:neural_main.c **** static const float test_digit[784] = {
   6:neural_main.c ****     [0 ... 783] = 0.0f,
   7:neural_main.c ****     // Add a simple digit pattern (could be improved with real MNIST data)
   8:neural_main.c ****     [100] = 0.8f, [101] = 0.9f, [102] = 0.8f,
   9:neural_main.c ****     [128] = 0.7f, [129] = 0.9f, [130] = 0.7f,
  10:neural_main.c **** };
  11:neural_main.c **** 
  12:neural_main.c **** // Forward declarations
  13:neural_main.c **** void Reset_Handler(void);
  14:neural_main.c **** void delay_ms(int ms);
  15:neural_main.c **** 
  16:neural_main.c **** // Vector table (proper setup)
  17:neural_main.c **** __attribute__((section(".isr_vector")))
  18:neural_main.c **** unsigned int vector_table[] = {
  19:neural_main.c ****     0x20020000,                    // Stack pointer
  20:neural_main.c ****     (unsigned int)Reset_Handler,   // Reset handler
  21:neural_main.c **** };
  22:neural_main.c **** 
  23:neural_main.c **** // Delay function
  24:neural_main.c **** void delay_ms(int ms) {
  30              		.loc 1 24 23 view -0
  31              		.cfi_startproc
  32              		@ args = 0, pretend = 0, frame = 8
  33              		@ frame_needed = 0, uses_anonymous_args = 0
  34              		@ link register save eliminated.
ARM GAS  /tmp/cch6bb4i.s 			page 2


  35              		.loc 1 24 23 is_stmt 0 view .LVU1
  36 0000 82B0     		sub	sp, sp, #8
  37              	.LCFI0:
  38              		.cfi_def_cfa_offset 8
  25:neural_main.c ****     // Approximate delay (assumes 16MHz internal clock)
  26:neural_main.c ****     for(volatile int i = 0; i < ms * 1000; i++);
  39              		.loc 1 26 5 is_stmt 1 view .LVU2
  40              	.LBB2:
  41              		.loc 1 26 9 view .LVU3
  42              		.loc 1 26 22 is_stmt 0 view .LVU4
  43 0002 0023     		movs	r3, #0
  44 0004 0193     		str	r3, [sp, #4]
  45              		.loc 1 26 5 view .LVU5
  46 0006 02E0     		b	.L2
  47              	.L3:
  48              		.loc 1 26 45 is_stmt 1 discriminator 3 view .LVU6
  49 0008 019B     		ldr	r3, [sp, #4]
  50 000a 0133     		adds	r3, r3, #1
  51 000c 0193     		str	r3, [sp, #4]
  52              	.L2:
  53              		.loc 1 26 31 discriminator 1 view .LVU7
  54              		.loc 1 26 36 is_stmt 0 discriminator 1 view .LVU8
  55 000e 4FF47A73 		mov	r3, #1000
  56 0012 00FB03F3 		mul	r3, r0, r3
  57              		.loc 1 26 31 discriminator 1 view .LVU9
  58 0016 019A     		ldr	r2, [sp, #4]
  59 0018 9342     		cmp	r3, r2
  60 001a F5DC     		bgt	.L3
  61              	.LBE2:
  27:neural_main.c **** }
  62              		.loc 1 27 1 view .LVU10
  63 001c 02B0     		add	sp, sp, #8
  64              	.LCFI1:
  65              		.cfi_def_cfa_offset 0
  66              		@ sp needed
  67 001e 7047     		bx	lr
  68              		.cfi_endproc
  69              	.LFE0:
  71              		.section	.text.setup_gpio,"ax",%progbits
  72              		.align	1
  73              		.global	setup_gpio
  74              		.syntax unified
  75              		.thumb
  76              		.thumb_func
  78              	setup_gpio:
  79              	.LFB1:
  28:neural_main.c **** 
  29:neural_main.c **** // GPIO setup
  30:neural_main.c **** void setup_gpio() {
  80              		.loc 1 30 19 is_stmt 1 view -0
  81              		.cfi_startproc
  82              		@ args = 0, pretend = 0, frame = 0
  83              		@ frame_needed = 0, uses_anonymous_args = 0
  84              		@ link register save eliminated.
  31:neural_main.c ****     // Enable GPIOA clock
  32:neural_main.c ****     *((volatile unsigned int*)0x40023830) |= 0x00000001;
  85              		.loc 1 32 5 view .LVU12
ARM GAS  /tmp/cch6bb4i.s 			page 3


  86 0000 084A     		ldr	r2, .L6
  87 0002 D2F83038 		ldr	r3, [r2, #2096]
  88              		.loc 1 32 43 is_stmt 0 view .LVU13
  89 0006 43F00103 		orr	r3, r3, #1
  90 000a C2F83038 		str	r3, [r2, #2096]
  33:neural_main.c ****     
  34:neural_main.c ****     // Configure PA5 as output
  35:neural_main.c ****     volatile unsigned int *moder = (volatile unsigned int*)0x40020000;
  91              		.loc 1 35 5 is_stmt 1 view .LVU14
  92              	.LVL1:
  36:neural_main.c ****     *moder &= ~(0x3 << 10);  // Clear bits
  93              		.loc 1 36 5 view .LVU15
  94 000e 064B     		ldr	r3, .L6+4
  95 0010 1A68     		ldr	r2, [r3]
  96              		.loc 1 36 12 is_stmt 0 view .LVU16
  97 0012 22F44062 		bic	r2, r2, #3072
  98 0016 1A60     		str	r2, [r3]
  37:neural_main.c ****     *moder |= (0x1 << 10);   // Set as output
  99              		.loc 1 37 5 is_stmt 1 view .LVU17
 100 0018 1A68     		ldr	r2, [r3]
 101              		.loc 1 37 12 is_stmt 0 view .LVU18
 102 001a 42F48062 		orr	r2, r2, #1024
 103 001e 1A60     		str	r2, [r3]
  38:neural_main.c **** }
 104              		.loc 1 38 1 view .LVU19
 105 0020 7047     		bx	lr
 106              	.L7:
 107 0022 00BF     		.align	2
 108              	.L6:
 109 0024 00300240 		.word	1073885184
 110 0028 00000240 		.word	1073872896
 111              		.cfi_endproc
 112              	.LFE1:
 114              		.section	.text.led_on,"ax",%progbits
 115              		.align	1
 116              		.global	led_on
 117              		.syntax unified
 118              		.thumb
 119              		.thumb_func
 121              	led_on:
 122              	.LFB2:
  39:neural_main.c **** 
  40:neural_main.c **** // LED control
  41:neural_main.c **** void led_on() {
 123              		.loc 1 41 15 is_stmt 1 view -0
 124              		.cfi_startproc
 125              		@ args = 0, pretend = 0, frame = 0
 126              		@ frame_needed = 0, uses_anonymous_args = 0
 127              		@ link register save eliminated.
  42:neural_main.c ****     *((volatile unsigned int*)0x40020018) = (1 << 5);
 128              		.loc 1 42 5 view .LVU21
 129              		.loc 1 42 43 is_stmt 0 view .LVU22
 130 0000 014B     		ldr	r3, .L9
 131 0002 2022     		movs	r2, #32
 132 0004 9A61     		str	r2, [r3, #24]
  43:neural_main.c **** }
 133              		.loc 1 43 1 view .LVU23
ARM GAS  /tmp/cch6bb4i.s 			page 4


 134 0006 7047     		bx	lr
 135              	.L10:
 136              		.align	2
 137              	.L9:
 138 0008 00000240 		.word	1073872896
 139              		.cfi_endproc
 140              	.LFE2:
 142              		.section	.text.led_off,"ax",%progbits
 143              		.align	1
 144              		.global	led_off
 145              		.syntax unified
 146              		.thumb
 147              		.thumb_func
 149              	led_off:
 150              	.LFB3:
  44:neural_main.c **** 
  45:neural_main.c **** void led_off() {
 151              		.loc 1 45 16 is_stmt 1 view -0
 152              		.cfi_startproc
 153              		@ args = 0, pretend = 0, frame = 0
 154              		@ frame_needed = 0, uses_anonymous_args = 0
 155              		@ link register save eliminated.
  46:neural_main.c ****     *((volatile unsigned int*)0x40020018) = (1 << 21);
 156              		.loc 1 46 5 view .LVU25
 157              		.loc 1 46 43 is_stmt 0 view .LVU26
 158 0000 024B     		ldr	r3, .L12
 159 0002 4FF40012 		mov	r2, #2097152
 160 0006 9A61     		str	r2, [r3, #24]
  47:neural_main.c **** }
 161              		.loc 1 47 1 view .LVU27
 162 0008 7047     		bx	lr
 163              	.L13:
 164 000a 00BF     		.align	2
 165              	.L12:
 166 000c 00000240 		.word	1073872896
 167              		.cfi_endproc
 168              	.LFE3:
 170              		.section	.text.led_blink,"ax",%progbits
 171              		.align	1
 172              		.global	led_blink
 173              		.syntax unified
 174              		.thumb
 175              		.thumb_func
 177              	led_blink:
 178              	.LVL2:
 179              	.LFB4:
  48:neural_main.c **** 
  49:neural_main.c **** void led_blink(int count) {
 180              		.loc 1 49 27 is_stmt 1 view -0
 181              		.cfi_startproc
 182              		@ args = 0, pretend = 0, frame = 0
 183              		@ frame_needed = 0, uses_anonymous_args = 0
 184              		.loc 1 49 27 is_stmt 0 view .LVU29
 185 0000 38B5     		push	{r3, r4, r5, lr}
 186              	.LCFI2:
 187              		.cfi_def_cfa_offset 16
 188              		.cfi_offset 3, -16
ARM GAS  /tmp/cch6bb4i.s 			page 5


 189              		.cfi_offset 4, -12
 190              		.cfi_offset 5, -8
 191              		.cfi_offset 14, -4
 192 0002 0546     		mov	r5, r0
  50:neural_main.c ****     for(int i = 0; i < count; i++) {
 193              		.loc 1 50 5 is_stmt 1 view .LVU30
 194              	.LBB3:
 195              		.loc 1 50 9 view .LVU31
 196              	.LVL3:
 197              		.loc 1 50 13 is_stmt 0 view .LVU32
 198 0004 0024     		movs	r4, #0
 199              		.loc 1 50 5 view .LVU33
 200 0006 0CE0     		b	.L15
 201              	.LVL4:
 202              	.L16:
  51:neural_main.c ****         led_on();
 203              		.loc 1 51 9 is_stmt 1 view .LVU34
 204 0008 FFF7FEFF 		bl	led_on
 205              	.LVL5:
  52:neural_main.c ****         delay_ms(300);
 206              		.loc 1 52 9 view .LVU35
 207 000c 4FF49670 		mov	r0, #300
 208 0010 FFF7FEFF 		bl	delay_ms
 209              	.LVL6:
  53:neural_main.c ****         led_off();
 210              		.loc 1 53 9 view .LVU36
 211 0014 FFF7FEFF 		bl	led_off
 212              	.LVL7:
  54:neural_main.c ****         delay_ms(300);
 213              		.loc 1 54 9 view .LVU37
 214 0018 4FF49670 		mov	r0, #300
 215 001c FFF7FEFF 		bl	delay_ms
 216              	.LVL8:
  50:neural_main.c ****         led_on();
 217              		.loc 1 50 32 discriminator 3 view .LVU38
 218 0020 0134     		adds	r4, r4, #1
 219              	.LVL9:
 220              	.L15:
  50:neural_main.c ****         led_on();
 221              		.loc 1 50 22 discriminator 1 view .LVU39
 222 0022 AC42     		cmp	r4, r5
 223 0024 F0DB     		blt	.L16
 224              	.LBE3:
  55:neural_main.c ****     }
  56:neural_main.c **** }
 225              		.loc 1 56 1 is_stmt 0 view .LVU40
 226 0026 38BD     		pop	{r3, r4, r5, pc}
 227              		.loc 1 56 1 view .LVU41
 228              		.cfi_endproc
 229              	.LFE4:
 231              		.section	.text.main_program,"ax",%progbits
 232              		.align	1
 233              		.global	main_program
 234              		.syntax unified
 235              		.thumb
 236              		.thumb_func
 238              	main_program:
ARM GAS  /tmp/cch6bb4i.s 			page 6


 239              	.LFB5:
  57:neural_main.c **** 
  58:neural_main.c **** // Main program
  59:neural_main.c **** void main_program() {
 240              		.loc 1 59 21 is_stmt 1 view -0
 241              		.cfi_startproc
 242              		@ args = 0, pretend = 0, frame = 0
 243              		@ frame_needed = 0, uses_anonymous_args = 0
 244 0000 10B5     		push	{r4, lr}
 245              	.LCFI3:
 246              		.cfi_def_cfa_offset 8
 247              		.cfi_offset 4, -8
 248              		.cfi_offset 14, -4
  60:neural_main.c ****     setup_gpio();
 249              		.loc 1 60 5 view .LVU43
 250 0002 FFF7FEFF 		bl	setup_gpio
 251              	.LVL10:
  61:neural_main.c ****     
  62:neural_main.c ****     // Startup sequence - 3 fast blinks
  63:neural_main.c ****     for(int i = 0; i < 3; i++) {
 252              		.loc 1 63 5 view .LVU44
 253              	.LBB4:
 254              		.loc 1 63 9 view .LVU45
 255              		.loc 1 63 13 is_stmt 0 view .LVU46
 256 0006 0024     		movs	r4, #0
 257              		.loc 1 63 5 view .LVU47
 258 0008 0AE0     		b	.L19
 259              	.LVL11:
 260              	.L20:
  64:neural_main.c ****         led_on();
 261              		.loc 1 64 9 is_stmt 1 view .LVU48
 262 000a FFF7FEFF 		bl	led_on
 263              	.LVL12:
  65:neural_main.c ****         delay_ms(100);
 264              		.loc 1 65 9 view .LVU49
 265 000e 6420     		movs	r0, #100
 266 0010 FFF7FEFF 		bl	delay_ms
 267              	.LVL13:
  66:neural_main.c ****         led_off();
 268              		.loc 1 66 9 view .LVU50
 269 0014 FFF7FEFF 		bl	led_off
 270              	.LVL14:
  67:neural_main.c ****         delay_ms(100);
 271              		.loc 1 67 9 view .LVU51
 272 0018 6420     		movs	r0, #100
 273 001a FFF7FEFF 		bl	delay_ms
 274              	.LVL15:
  63:neural_main.c ****         led_on();
 275              		.loc 1 63 28 discriminator 3 view .LVU52
 276 001e 0134     		adds	r4, r4, #1
 277              	.LVL16:
 278              	.L19:
  63:neural_main.c ****         led_on();
 279              		.loc 1 63 22 discriminator 1 view .LVU53
 280 0020 022C     		cmp	r4, #2
 281 0022 F2DD     		ble	.L20
 282              	.LBE4:
ARM GAS  /tmp/cch6bb4i.s 			page 7


  68:neural_main.c ****     }
  69:neural_main.c ****     
  70:neural_main.c ****     delay_ms(1000);  // Pause
 283              		.loc 1 70 5 view .LVU54
 284 0024 4FF47A70 		mov	r0, #1000
 285 0028 FFF7FEFF 		bl	delay_ms
 286              	.LVL17:
 287 002c 07E0     		b	.L22
 288              	.LVL18:
 289              	.L23:
 290              	.LBB5:
  71:neural_main.c ****     
  72:neural_main.c ****     // Main loop
  73:neural_main.c ****     while(1) {
  74:neural_main.c ****         // Run neural network inference
  75:neural_main.c ****         int prediction = predict(test_digit, 28, 28, 1);
  76:neural_main.c ****         
  77:neural_main.c ****         // Ensure valid range
  78:neural_main.c ****         if(prediction < 0) prediction = 0;
 291              		.loc 1 78 39 is_stmt 0 discriminator 1 view .LVU55
 292 002e 0020     		movs	r0, #0
 293              	.LVL19:
 294              	.L21:
  79:neural_main.c ****         if(prediction > 9) prediction = 9;
  80:neural_main.c ****         
  81:neural_main.c ****         // Blink LED: prediction + 1 times
  82:neural_main.c ****         led_blink(prediction + 1);
 295              		.loc 1 82 9 is_stmt 1 view .LVU56
 296 0030 0130     		adds	r0, r0, #1
 297              	.LVL20:
 298              		.loc 1 82 9 is_stmt 0 view .LVU57
 299 0032 FFF7FEFF 		bl	led_blink
 300              	.LVL21:
  83:neural_main.c ****         
  84:neural_main.c ****         // Long pause before next prediction
  85:neural_main.c ****         delay_ms(3000);
 301              		.loc 1 85 9 is_stmt 1 view .LVU58
 302 0036 40F6B830 		movw	r0, #3000
 303 003a FFF7FEFF 		bl	delay_ms
 304              	.LVL22:
 305              	.LBE5:
  73:neural_main.c ****         // Run neural network inference
 306              		.loc 1 73 10 view .LVU59
 307              	.L22:
  73:neural_main.c ****         // Run neural network inference
 308              		.loc 1 73 5 view .LVU60
 309              	.LBB6:
  75:neural_main.c ****         
 310              		.loc 1 75 9 view .LVU61
  75:neural_main.c ****         
 311              		.loc 1 75 26 is_stmt 0 view .LVU62
 312 003e 0123     		movs	r3, #1
 313 0040 1C22     		movs	r2, #28
 314 0042 1146     		mov	r1, r2
 315 0044 0448     		ldr	r0, .L26
 316 0046 FFF7FEFF 		bl	predict
 317              	.LVL23:
ARM GAS  /tmp/cch6bb4i.s 			page 8


  78:neural_main.c ****         if(prediction > 9) prediction = 9;
 318              		.loc 1 78 9 is_stmt 1 view .LVU63
  78:neural_main.c ****         if(prediction > 9) prediction = 9;
 319              		.loc 1 78 11 is_stmt 0 view .LVU64
 320 004a 0028     		cmp	r0, #0
  78:neural_main.c ****         if(prediction > 9) prediction = 9;
 321              		.loc 1 78 11 view .LVU65
 322 004c EFDB     		blt	.L23
  79:neural_main.c ****         
 323              		.loc 1 79 9 is_stmt 1 view .LVU66
  79:neural_main.c ****         
 324              		.loc 1 79 11 is_stmt 0 view .LVU67
 325 004e 0928     		cmp	r0, #9
 326 0050 EEDD     		ble	.L21
  79:neural_main.c ****         
 327              		.loc 1 79 39 discriminator 1 view .LVU68
 328 0052 0920     		movs	r0, #9
 329              	.LVL24:
  79:neural_main.c ****         
 330              		.loc 1 79 39 discriminator 1 view .LVU69
 331 0054 ECE7     		b	.L21
 332              	.L27:
 333 0056 00BF     		.align	2
 334              	.L26:
 335 0058 00000000 		.word	test_digit
 336              	.LBE6:
 337              		.cfi_endproc
 338              	.LFE5:
 340              		.section	.text.Reset_Handler,"ax",%progbits
 341              		.align	1
 342              		.global	Reset_Handler
 343              		.syntax unified
 344              		.thumb
 345              		.thumb_func
 347              	Reset_Handler:
 348              	.LFB6:
  86:neural_main.c ****     }
  87:neural_main.c **** }
  88:neural_main.c **** 
  89:neural_main.c **** // Reset handler
  90:neural_main.c **** __attribute__((naked))
  91:neural_main.c **** void Reset_Handler() {
 349              		.loc 1 91 22 is_stmt 1 view -0
 350              		.cfi_startproc
 351              		@ Naked Function: prologue and epilogue provided by programmer.
 352              		@ args = 0, pretend = 0, frame = 0
 353              		@ frame_needed = 0, uses_anonymous_args = 0
  92:neural_main.c ****     // Basic startup (minimal for this demo)
  93:neural_main.c ****     main_program();
 354              		.loc 1 93 5 view .LVU71
 355 0000 FFF7FEFF 		bl	main_program
 356              	.LVL25:
 357              		.cfi_endproc
 358              	.LFE6:
 360              		.global	vector_table
 361              		.section	.isr_vector,"aw"
 362              		.align	2
ARM GAS  /tmp/cch6bb4i.s 			page 9


 365              	vector_table:
 366 0000 00000220 		.word	537001984
 367 0004 00000000 		.word	Reset_Handler
 368              		.section	.rodata.test_digit,"a"
 369              		.align	2
 372              	test_digit:
 373 0000 00000000 		.word	0
 374 0004 00000000 		.word	0
 375 0008 00000000 		.word	0
 376 000c 00000000 		.word	0
 377 0010 00000000 		.word	0
 378 0014 00000000 		.word	0
 379 0018 00000000 		.word	0
 380 001c 00000000 		.word	0
 381 0020 00000000 		.word	0
 382 0024 00000000 		.word	0
 383 0028 00000000 		.word	0
 384 002c 00000000 		.word	0
 385 0030 00000000 		.word	0
 386 0034 00000000 		.word	0
 387 0038 00000000 		.word	0
 388 003c 00000000 		.word	0
 389 0040 00000000 		.word	0
 390 0044 00000000 		.word	0
 391 0048 00000000 		.word	0
 392 004c 00000000 		.word	0
 393 0050 00000000 		.word	0
 394 0054 00000000 		.word	0
 395 0058 00000000 		.word	0
 396 005c 00000000 		.word	0
 397 0060 00000000 		.word	0
 398 0064 00000000 		.word	0
 399 0068 00000000 		.word	0
 400 006c 00000000 		.word	0
 401 0070 00000000 		.word	0
 402 0074 00000000 		.word	0
 403 0078 00000000 		.word	0
 404 007c 00000000 		.word	0
 405 0080 00000000 		.word	0
 406 0084 00000000 		.word	0
 407 0088 00000000 		.word	0
 408 008c 00000000 		.word	0
 409 0090 00000000 		.word	0
 410 0094 00000000 		.word	0
 411 0098 00000000 		.word	0
 412 009c 00000000 		.word	0
 413 00a0 00000000 		.word	0
 414 00a4 00000000 		.word	0
 415 00a8 00000000 		.word	0
 416 00ac 00000000 		.word	0
 417 00b0 00000000 		.word	0
 418 00b4 00000000 		.word	0
 419 00b8 00000000 		.word	0
 420 00bc 00000000 		.word	0
 421 00c0 00000000 		.word	0
 422 00c4 00000000 		.word	0
 423 00c8 00000000 		.word	0
ARM GAS  /tmp/cch6bb4i.s 			page 10


 424 00cc 00000000 		.word	0
 425 00d0 00000000 		.word	0
 426 00d4 00000000 		.word	0
 427 00d8 00000000 		.word	0
 428 00dc 00000000 		.word	0
 429 00e0 00000000 		.word	0
 430 00e4 00000000 		.word	0
 431 00e8 00000000 		.word	0
 432 00ec 00000000 		.word	0
 433 00f0 00000000 		.word	0
 434 00f4 00000000 		.word	0
 435 00f8 00000000 		.word	0
 436 00fc 00000000 		.word	0
 437 0100 00000000 		.word	0
 438 0104 00000000 		.word	0
 439 0108 00000000 		.word	0
 440 010c 00000000 		.word	0
 441 0110 00000000 		.word	0
 442 0114 00000000 		.word	0
 443 0118 00000000 		.word	0
 444 011c 00000000 		.word	0
 445 0120 00000000 		.word	0
 446 0124 00000000 		.word	0
 447 0128 00000000 		.word	0
 448 012c 00000000 		.word	0
 449 0130 00000000 		.word	0
 450 0134 00000000 		.word	0
 451 0138 00000000 		.word	0
 452 013c 00000000 		.word	0
 453 0140 00000000 		.word	0
 454 0144 00000000 		.word	0
 455 0148 00000000 		.word	0
 456 014c 00000000 		.word	0
 457 0150 00000000 		.word	0
 458 0154 00000000 		.word	0
 459 0158 00000000 		.word	0
 460 015c 00000000 		.word	0
 461 0160 00000000 		.word	0
 462 0164 00000000 		.word	0
 463 0168 00000000 		.word	0
 464 016c 00000000 		.word	0
 465 0170 00000000 		.word	0
 466 0174 00000000 		.word	0
 467 0178 00000000 		.word	0
 468 017c 00000000 		.word	0
 469 0180 00000000 		.word	0
 470 0184 00000000 		.word	0
 471 0188 00000000 		.word	0
 472 018c 00000000 		.word	0
 473 0190 CDCC4C3F 		.word	1061997773
 474 0194 6666663F 		.word	1063675494
 475 0198 CDCC4C3F 		.word	1061997773
 476 019c 00000000 		.word	0
 477 01a0 00000000 		.word	0
 478 01a4 00000000 		.word	0
 479 01a8 00000000 		.word	0
 480 01ac 00000000 		.word	0
ARM GAS  /tmp/cch6bb4i.s 			page 11


 481 01b0 00000000 		.word	0
 482 01b4 00000000 		.word	0
 483 01b8 00000000 		.word	0
 484 01bc 00000000 		.word	0
 485 01c0 00000000 		.word	0
 486 01c4 00000000 		.word	0
 487 01c8 00000000 		.word	0
 488 01cc 00000000 		.word	0
 489 01d0 00000000 		.word	0
 490 01d4 00000000 		.word	0
 491 01d8 00000000 		.word	0
 492 01dc 00000000 		.word	0
 493 01e0 00000000 		.word	0
 494 01e4 00000000 		.word	0
 495 01e8 00000000 		.word	0
 496 01ec 00000000 		.word	0
 497 01f0 00000000 		.word	0
 498 01f4 00000000 		.word	0
 499 01f8 00000000 		.word	0
 500 01fc 00000000 		.word	0
 501 0200 3333333F 		.word	1060320051
 502 0204 6666663F 		.word	1063675494
 503 0208 3333333F 		.word	1060320051
 504 020c 00000000 		.word	0
 505 0210 00000000 		.word	0
 506 0214 00000000 		.word	0
 507 0218 00000000 		.word	0
 508 021c 00000000 		.word	0
 509 0220 00000000 		.word	0
 510 0224 00000000 		.word	0
 511 0228 00000000 		.word	0
 512 022c 00000000 		.word	0
 513 0230 00000000 		.word	0
 514 0234 00000000 		.word	0
 515 0238 00000000 		.word	0
 516 023c 00000000 		.word	0
 517 0240 00000000 		.word	0
 518 0244 00000000 		.word	0
 519 0248 00000000 		.word	0
 520 024c 00000000 		.word	0
 521 0250 00000000 		.word	0
 522 0254 00000000 		.word	0
 523 0258 00000000 		.word	0
 524 025c 00000000 		.word	0
 525 0260 00000000 		.word	0
 526 0264 00000000 		.word	0
 527 0268 00000000 		.word	0
 528 026c 00000000 		.word	0
 529 0270 00000000 		.word	0
 530 0274 00000000 		.word	0
 531 0278 00000000 		.word	0
 532 027c 00000000 		.word	0
 533 0280 00000000 		.word	0
 534 0284 00000000 		.word	0
 535 0288 00000000 		.word	0
 536 028c 00000000 		.word	0
 537 0290 00000000 		.word	0
ARM GAS  /tmp/cch6bb4i.s 			page 12


 538 0294 00000000 		.word	0
 539 0298 00000000 		.word	0
 540 029c 00000000 		.word	0
 541 02a0 00000000 		.word	0
 542 02a4 00000000 		.word	0
 543 02a8 00000000 		.word	0
 544 02ac 00000000 		.word	0
 545 02b0 00000000 		.word	0
 546 02b4 00000000 		.word	0
 547 02b8 00000000 		.word	0
 548 02bc 00000000 		.word	0
 549 02c0 00000000 		.word	0
 550 02c4 00000000 		.word	0
 551 02c8 00000000 		.word	0
 552 02cc 00000000 		.word	0
 553 02d0 00000000 		.word	0
 554 02d4 00000000 		.word	0
 555 02d8 00000000 		.word	0
 556 02dc 00000000 		.word	0
 557 02e0 00000000 		.word	0
 558 02e4 00000000 		.word	0
 559 02e8 00000000 		.word	0
 560 02ec 00000000 		.word	0
 561 02f0 00000000 		.word	0
 562 02f4 00000000 		.word	0
 563 02f8 00000000 		.word	0
 564 02fc 00000000 		.word	0
 565 0300 00000000 		.word	0
 566 0304 00000000 		.word	0
 567 0308 00000000 		.word	0
 568 030c 00000000 		.word	0
 569 0310 00000000 		.word	0
 570 0314 00000000 		.word	0
 571 0318 00000000 		.word	0
 572 031c 00000000 		.word	0
 573 0320 00000000 		.word	0
 574 0324 00000000 		.word	0
 575 0328 00000000 		.word	0
 576 032c 00000000 		.word	0
 577 0330 00000000 		.word	0
 578 0334 00000000 		.word	0
 579 0338 00000000 		.word	0
 580 033c 00000000 		.word	0
 581 0340 00000000 		.word	0
 582 0344 00000000 		.word	0
 583 0348 00000000 		.word	0
 584 034c 00000000 		.word	0
 585 0350 00000000 		.word	0
 586 0354 00000000 		.word	0
 587 0358 00000000 		.word	0
 588 035c 00000000 		.word	0
 589 0360 00000000 		.word	0
 590 0364 00000000 		.word	0
 591 0368 00000000 		.word	0
 592 036c 00000000 		.word	0
 593 0370 00000000 		.word	0
 594 0374 00000000 		.word	0
ARM GAS  /tmp/cch6bb4i.s 			page 13


 595 0378 00000000 		.word	0
 596 037c 00000000 		.word	0
 597 0380 00000000 		.word	0
 598 0384 00000000 		.word	0
 599 0388 00000000 		.word	0
 600 038c 00000000 		.word	0
 601 0390 00000000 		.word	0
 602 0394 00000000 		.word	0
 603 0398 00000000 		.word	0
 604 039c 00000000 		.word	0
 605 03a0 00000000 		.word	0
 606 03a4 00000000 		.word	0
 607 03a8 00000000 		.word	0
 608 03ac 00000000 		.word	0
 609 03b0 00000000 		.word	0
 610 03b4 00000000 		.word	0
 611 03b8 00000000 		.word	0
 612 03bc 00000000 		.word	0
 613 03c0 00000000 		.word	0
 614 03c4 00000000 		.word	0
 615 03c8 00000000 		.word	0
 616 03cc 00000000 		.word	0
 617 03d0 00000000 		.word	0
 618 03d4 00000000 		.word	0
 619 03d8 00000000 		.word	0
 620 03dc 00000000 		.word	0
 621 03e0 00000000 		.word	0
 622 03e4 00000000 		.word	0
 623 03e8 00000000 		.word	0
 624 03ec 00000000 		.word	0
 625 03f0 00000000 		.word	0
 626 03f4 00000000 		.word	0
 627 03f8 00000000 		.word	0
 628 03fc 00000000 		.word	0
 629 0400 00000000 		.word	0
 630 0404 00000000 		.word	0
 631 0408 00000000 		.word	0
 632 040c 00000000 		.word	0
 633 0410 00000000 		.word	0
 634 0414 00000000 		.word	0
 635 0418 00000000 		.word	0
 636 041c 00000000 		.word	0
 637 0420 00000000 		.word	0
 638 0424 00000000 		.word	0
 639 0428 00000000 		.word	0
 640 042c 00000000 		.word	0
 641 0430 00000000 		.word	0
 642 0434 00000000 		.word	0
 643 0438 00000000 		.word	0
 644 043c 00000000 		.word	0
 645 0440 00000000 		.word	0
 646 0444 00000000 		.word	0
 647 0448 00000000 		.word	0
 648 044c 00000000 		.word	0
 649 0450 00000000 		.word	0
 650 0454 00000000 		.word	0
 651 0458 00000000 		.word	0
ARM GAS  /tmp/cch6bb4i.s 			page 14


 652 045c 00000000 		.word	0
 653 0460 00000000 		.word	0
 654 0464 00000000 		.word	0
 655 0468 00000000 		.word	0
 656 046c 00000000 		.word	0
 657 0470 00000000 		.word	0
 658 0474 00000000 		.word	0
 659 0478 00000000 		.word	0
 660 047c 00000000 		.word	0
 661 0480 00000000 		.word	0
 662 0484 00000000 		.word	0
 663 0488 00000000 		.word	0
 664 048c 00000000 		.word	0
 665 0490 00000000 		.word	0
 666 0494 00000000 		.word	0
 667 0498 00000000 		.word	0
 668 049c 00000000 		.word	0
 669 04a0 00000000 		.word	0
 670 04a4 00000000 		.word	0
 671 04a8 00000000 		.word	0
 672 04ac 00000000 		.word	0
 673 04b0 00000000 		.word	0
 674 04b4 00000000 		.word	0
 675 04b8 00000000 		.word	0
 676 04bc 00000000 		.word	0
 677 04c0 00000000 		.word	0
 678 04c4 00000000 		.word	0
 679 04c8 00000000 		.word	0
 680 04cc 00000000 		.word	0
 681 04d0 00000000 		.word	0
 682 04d4 00000000 		.word	0
 683 04d8 00000000 		.word	0
 684 04dc 00000000 		.word	0
 685 04e0 00000000 		.word	0
 686 04e4 00000000 		.word	0
 687 04e8 00000000 		.word	0
 688 04ec 00000000 		.word	0
 689 04f0 00000000 		.word	0
 690 04f4 00000000 		.word	0
 691 04f8 00000000 		.word	0
 692 04fc 00000000 		.word	0
 693 0500 00000000 		.word	0
 694 0504 00000000 		.word	0
 695 0508 00000000 		.word	0
 696 050c 00000000 		.word	0
 697 0510 00000000 		.word	0
 698 0514 00000000 		.word	0
 699 0518 00000000 		.word	0
 700 051c 00000000 		.word	0
 701 0520 00000000 		.word	0
 702 0524 00000000 		.word	0
 703 0528 00000000 		.word	0
 704 052c 00000000 		.word	0
 705 0530 00000000 		.word	0
 706 0534 00000000 		.word	0
 707 0538 00000000 		.word	0
 708 053c 00000000 		.word	0
ARM GAS  /tmp/cch6bb4i.s 			page 15


 709 0540 00000000 		.word	0
 710 0544 00000000 		.word	0
 711 0548 00000000 		.word	0
 712 054c 00000000 		.word	0
 713 0550 00000000 		.word	0
 714 0554 00000000 		.word	0
 715 0558 00000000 		.word	0
 716 055c 00000000 		.word	0
 717 0560 00000000 		.word	0
 718 0564 00000000 		.word	0
 719 0568 00000000 		.word	0
 720 056c 00000000 		.word	0
 721 0570 00000000 		.word	0
 722 0574 00000000 		.word	0
 723 0578 00000000 		.word	0
 724 057c 00000000 		.word	0
 725 0580 00000000 		.word	0
 726 0584 00000000 		.word	0
 727 0588 00000000 		.word	0
 728 058c 00000000 		.word	0
 729 0590 00000000 		.word	0
 730 0594 00000000 		.word	0
 731 0598 00000000 		.word	0
 732 059c 00000000 		.word	0
 733 05a0 00000000 		.word	0
 734 05a4 00000000 		.word	0
 735 05a8 00000000 		.word	0
 736 05ac 00000000 		.word	0
 737 05b0 00000000 		.word	0
 738 05b4 00000000 		.word	0
 739 05b8 00000000 		.word	0
 740 05bc 00000000 		.word	0
 741 05c0 00000000 		.word	0
 742 05c4 00000000 		.word	0
 743 05c8 00000000 		.word	0
 744 05cc 00000000 		.word	0
 745 05d0 00000000 		.word	0
 746 05d4 00000000 		.word	0
 747 05d8 00000000 		.word	0
 748 05dc 00000000 		.word	0
 749 05e0 00000000 		.word	0
 750 05e4 00000000 		.word	0
 751 05e8 00000000 		.word	0
 752 05ec 00000000 		.word	0
 753 05f0 00000000 		.word	0
 754 05f4 00000000 		.word	0
 755 05f8 00000000 		.word	0
 756 05fc 00000000 		.word	0
 757 0600 00000000 		.word	0
 758 0604 00000000 		.word	0
 759 0608 00000000 		.word	0
 760 060c 00000000 		.word	0
 761 0610 00000000 		.word	0
 762 0614 00000000 		.word	0
 763 0618 00000000 		.word	0
 764 061c 00000000 		.word	0
 765 0620 00000000 		.word	0
ARM GAS  /tmp/cch6bb4i.s 			page 16


 766 0624 00000000 		.word	0
 767 0628 00000000 		.word	0
 768 062c 00000000 		.word	0
 769 0630 00000000 		.word	0
 770 0634 00000000 		.word	0
 771 0638 00000000 		.word	0
 772 063c 00000000 		.word	0
 773 0640 00000000 		.word	0
 774 0644 00000000 		.word	0
 775 0648 00000000 		.word	0
 776 064c 00000000 		.word	0
 777 0650 00000000 		.word	0
 778 0654 00000000 		.word	0
 779 0658 00000000 		.word	0
 780 065c 00000000 		.word	0
 781 0660 00000000 		.word	0
 782 0664 00000000 		.word	0
 783 0668 00000000 		.word	0
 784 066c 00000000 		.word	0
 785 0670 00000000 		.word	0
 786 0674 00000000 		.word	0
 787 0678 00000000 		.word	0
 788 067c 00000000 		.word	0
 789 0680 00000000 		.word	0
 790 0684 00000000 		.word	0
 791 0688 00000000 		.word	0
 792 068c 00000000 		.word	0
 793 0690 00000000 		.word	0
 794 0694 00000000 		.word	0
 795 0698 00000000 		.word	0
 796 069c 00000000 		.word	0
 797 06a0 00000000 		.word	0
 798 06a4 00000000 		.word	0
 799 06a8 00000000 		.word	0
 800 06ac 00000000 		.word	0
 801 06b0 00000000 		.word	0
 802 06b4 00000000 		.word	0
 803 06b8 00000000 		.word	0
 804 06bc 00000000 		.word	0
 805 06c0 00000000 		.word	0
 806 06c4 00000000 		.word	0
 807 06c8 00000000 		.word	0
 808 06cc 00000000 		.word	0
 809 06d0 00000000 		.word	0
 810 06d4 00000000 		.word	0
 811 06d8 00000000 		.word	0
 812 06dc 00000000 		.word	0
 813 06e0 00000000 		.word	0
 814 06e4 00000000 		.word	0
 815 06e8 00000000 		.word	0
 816 06ec 00000000 		.word	0
 817 06f0 00000000 		.word	0
 818 06f4 00000000 		.word	0
 819 06f8 00000000 		.word	0
 820 06fc 00000000 		.word	0
 821 0700 00000000 		.word	0
 822 0704 00000000 		.word	0
ARM GAS  /tmp/cch6bb4i.s 			page 17


 823 0708 00000000 		.word	0
 824 070c 00000000 		.word	0
 825 0710 00000000 		.word	0
 826 0714 00000000 		.word	0
 827 0718 00000000 		.word	0
 828 071c 00000000 		.word	0
 829 0720 00000000 		.word	0
 830 0724 00000000 		.word	0
 831 0728 00000000 		.word	0
 832 072c 00000000 		.word	0
 833 0730 00000000 		.word	0
 834 0734 00000000 		.word	0
 835 0738 00000000 		.word	0
 836 073c 00000000 		.word	0
 837 0740 00000000 		.word	0
 838 0744 00000000 		.word	0
 839 0748 00000000 		.word	0
 840 074c 00000000 		.word	0
 841 0750 00000000 		.word	0
 842 0754 00000000 		.word	0
 843 0758 00000000 		.word	0
 844 075c 00000000 		.word	0
 845 0760 00000000 		.word	0
 846 0764 00000000 		.word	0
 847 0768 00000000 		.word	0
 848 076c 00000000 		.word	0
 849 0770 00000000 		.word	0
 850 0774 00000000 		.word	0
 851 0778 00000000 		.word	0
 852 077c 00000000 		.word	0
 853 0780 00000000 		.word	0
 854 0784 00000000 		.word	0
 855 0788 00000000 		.word	0
 856 078c 00000000 		.word	0
 857 0790 00000000 		.word	0
 858 0794 00000000 		.word	0
 859 0798 00000000 		.word	0
 860 079c 00000000 		.word	0
 861 07a0 00000000 		.word	0
 862 07a4 00000000 		.word	0
 863 07a8 00000000 		.word	0
 864 07ac 00000000 		.word	0
 865 07b0 00000000 		.word	0
 866 07b4 00000000 		.word	0
 867 07b8 00000000 		.word	0
 868 07bc 00000000 		.word	0
 869 07c0 00000000 		.word	0
 870 07c4 00000000 		.word	0
 871 07c8 00000000 		.word	0
 872 07cc 00000000 		.word	0
 873 07d0 00000000 		.word	0
 874 07d4 00000000 		.word	0
 875 07d8 00000000 		.word	0
 876 07dc 00000000 		.word	0
 877 07e0 00000000 		.word	0
 878 07e4 00000000 		.word	0
 879 07e8 00000000 		.word	0
ARM GAS  /tmp/cch6bb4i.s 			page 18


 880 07ec 00000000 		.word	0
 881 07f0 00000000 		.word	0
 882 07f4 00000000 		.word	0
 883 07f8 00000000 		.word	0
 884 07fc 00000000 		.word	0
 885 0800 00000000 		.word	0
 886 0804 00000000 		.word	0
 887 0808 00000000 		.word	0
 888 080c 00000000 		.word	0
 889 0810 00000000 		.word	0
 890 0814 00000000 		.word	0
 891 0818 00000000 		.word	0
 892 081c 00000000 		.word	0
 893 0820 00000000 		.word	0
 894 0824 00000000 		.word	0
 895 0828 00000000 		.word	0
 896 082c 00000000 		.word	0
 897 0830 00000000 		.word	0
 898 0834 00000000 		.word	0
 899 0838 00000000 		.word	0
 900 083c 00000000 		.word	0
 901 0840 00000000 		.word	0
 902 0844 00000000 		.word	0
 903 0848 00000000 		.word	0
 904 084c 00000000 		.word	0
 905 0850 00000000 		.word	0
 906 0854 00000000 		.word	0
 907 0858 00000000 		.word	0
 908 085c 00000000 		.word	0
 909 0860 00000000 		.word	0
 910 0864 00000000 		.word	0
 911 0868 00000000 		.word	0
 912 086c 00000000 		.word	0
 913 0870 00000000 		.word	0
 914 0874 00000000 		.word	0
 915 0878 00000000 		.word	0
 916 087c 00000000 		.word	0
 917 0880 00000000 		.word	0
 918 0884 00000000 		.word	0
 919 0888 00000000 		.word	0
 920 088c 00000000 		.word	0
 921 0890 00000000 		.word	0
 922 0894 00000000 		.word	0
 923 0898 00000000 		.word	0
 924 089c 00000000 		.word	0
 925 08a0 00000000 		.word	0
 926 08a4 00000000 		.word	0
 927 08a8 00000000 		.word	0
 928 08ac 00000000 		.word	0
 929 08b0 00000000 		.word	0
 930 08b4 00000000 		.word	0
 931 08b8 00000000 		.word	0
 932 08bc 00000000 		.word	0
 933 08c0 00000000 		.word	0
 934 08c4 00000000 		.word	0
 935 08c8 00000000 		.word	0
 936 08cc 00000000 		.word	0
ARM GAS  /tmp/cch6bb4i.s 			page 19


 937 08d0 00000000 		.word	0
 938 08d4 00000000 		.word	0
 939 08d8 00000000 		.word	0
 940 08dc 00000000 		.word	0
 941 08e0 00000000 		.word	0
 942 08e4 00000000 		.word	0
 943 08e8 00000000 		.word	0
 944 08ec 00000000 		.word	0
 945 08f0 00000000 		.word	0
 946 08f4 00000000 		.word	0
 947 08f8 00000000 		.word	0
 948 08fc 00000000 		.word	0
 949 0900 00000000 		.word	0
 950 0904 00000000 		.word	0
 951 0908 00000000 		.word	0
 952 090c 00000000 		.word	0
 953 0910 00000000 		.word	0
 954 0914 00000000 		.word	0
 955 0918 00000000 		.word	0
 956 091c 00000000 		.word	0
 957 0920 00000000 		.word	0
 958 0924 00000000 		.word	0
 959 0928 00000000 		.word	0
 960 092c 00000000 		.word	0
 961 0930 00000000 		.word	0
 962 0934 00000000 		.word	0
 963 0938 00000000 		.word	0
 964 093c 00000000 		.word	0
 965 0940 00000000 		.word	0
 966 0944 00000000 		.word	0
 967 0948 00000000 		.word	0
 968 094c 00000000 		.word	0
 969 0950 00000000 		.word	0
 970 0954 00000000 		.word	0
 971 0958 00000000 		.word	0
 972 095c 00000000 		.word	0
 973 0960 00000000 		.word	0
 974 0964 00000000 		.word	0
 975 0968 00000000 		.word	0
 976 096c 00000000 		.word	0
 977 0970 00000000 		.word	0
 978 0974 00000000 		.word	0
 979 0978 00000000 		.word	0
 980 097c 00000000 		.word	0
 981 0980 00000000 		.word	0
 982 0984 00000000 		.word	0
 983 0988 00000000 		.word	0
 984 098c 00000000 		.word	0
 985 0990 00000000 		.word	0
 986 0994 00000000 		.word	0
 987 0998 00000000 		.word	0
 988 099c 00000000 		.word	0
 989 09a0 00000000 		.word	0
 990 09a4 00000000 		.word	0
 991 09a8 00000000 		.word	0
 992 09ac 00000000 		.word	0
 993 09b0 00000000 		.word	0
ARM GAS  /tmp/cch6bb4i.s 			page 20


 994 09b4 00000000 		.word	0
 995 09b8 00000000 		.word	0
 996 09bc 00000000 		.word	0
 997 09c0 00000000 		.word	0
 998 09c4 00000000 		.word	0
 999 09c8 00000000 		.word	0
 1000 09cc 00000000 		.word	0
 1001 09d0 00000000 		.word	0
 1002 09d4 00000000 		.word	0
 1003 09d8 00000000 		.word	0
 1004 09dc 00000000 		.word	0
 1005 09e0 00000000 		.word	0
 1006 09e4 00000000 		.word	0
 1007 09e8 00000000 		.word	0
 1008 09ec 00000000 		.word	0
 1009 09f0 00000000 		.word	0
 1010 09f4 00000000 		.word	0
 1011 09f8 00000000 		.word	0
 1012 09fc 00000000 		.word	0
 1013 0a00 00000000 		.word	0
 1014 0a04 00000000 		.word	0
 1015 0a08 00000000 		.word	0
 1016 0a0c 00000000 		.word	0
 1017 0a10 00000000 		.word	0
 1018 0a14 00000000 		.word	0
 1019 0a18 00000000 		.word	0
 1020 0a1c 00000000 		.word	0
 1021 0a20 00000000 		.word	0
 1022 0a24 00000000 		.word	0
 1023 0a28 00000000 		.word	0
 1024 0a2c 00000000 		.word	0
 1025 0a30 00000000 		.word	0
 1026 0a34 00000000 		.word	0
 1027 0a38 00000000 		.word	0
 1028 0a3c 00000000 		.word	0
 1029 0a40 00000000 		.word	0
 1030 0a44 00000000 		.word	0
 1031 0a48 00000000 		.word	0
 1032 0a4c 00000000 		.word	0
 1033 0a50 00000000 		.word	0
 1034 0a54 00000000 		.word	0
 1035 0a58 00000000 		.word	0
 1036 0a5c 00000000 		.word	0
 1037 0a60 00000000 		.word	0
 1038 0a64 00000000 		.word	0
 1039 0a68 00000000 		.word	0
 1040 0a6c 00000000 		.word	0
 1041 0a70 00000000 		.word	0
 1042 0a74 00000000 		.word	0
 1043 0a78 00000000 		.word	0
 1044 0a7c 00000000 		.word	0
 1045 0a80 00000000 		.word	0
 1046 0a84 00000000 		.word	0
 1047 0a88 00000000 		.word	0
 1048 0a8c 00000000 		.word	0
 1049 0a90 00000000 		.word	0
 1050 0a94 00000000 		.word	0
ARM GAS  /tmp/cch6bb4i.s 			page 21


 1051 0a98 00000000 		.word	0
 1052 0a9c 00000000 		.word	0
 1053 0aa0 00000000 		.word	0
 1054 0aa4 00000000 		.word	0
 1055 0aa8 00000000 		.word	0
 1056 0aac 00000000 		.word	0
 1057 0ab0 00000000 		.word	0
 1058 0ab4 00000000 		.word	0
 1059 0ab8 00000000 		.word	0
 1060 0abc 00000000 		.word	0
 1061 0ac0 00000000 		.word	0
 1062 0ac4 00000000 		.word	0
 1063 0ac8 00000000 		.word	0
 1064 0acc 00000000 		.word	0
 1065 0ad0 00000000 		.word	0
 1066 0ad4 00000000 		.word	0
 1067 0ad8 00000000 		.word	0
 1068 0adc 00000000 		.word	0
 1069 0ae0 00000000 		.word	0
 1070 0ae4 00000000 		.word	0
 1071 0ae8 00000000 		.word	0
 1072 0aec 00000000 		.word	0
 1073 0af0 00000000 		.word	0
 1074 0af4 00000000 		.word	0
 1075 0af8 00000000 		.word	0
 1076 0afc 00000000 		.word	0
 1077 0b00 00000000 		.word	0
 1078 0b04 00000000 		.word	0
 1079 0b08 00000000 		.word	0
 1080 0b0c 00000000 		.word	0
 1081 0b10 00000000 		.word	0
 1082 0b14 00000000 		.word	0
 1083 0b18 00000000 		.word	0
 1084 0b1c 00000000 		.word	0
 1085 0b20 00000000 		.word	0
 1086 0b24 00000000 		.word	0
 1087 0b28 00000000 		.word	0
 1088 0b2c 00000000 		.word	0
 1089 0b30 00000000 		.word	0
 1090 0b34 00000000 		.word	0
 1091 0b38 00000000 		.word	0
 1092 0b3c 00000000 		.word	0
 1093 0b40 00000000 		.word	0
 1094 0b44 00000000 		.word	0
 1095 0b48 00000000 		.word	0
 1096 0b4c 00000000 		.word	0
 1097 0b50 00000000 		.word	0
 1098 0b54 00000000 		.word	0
 1099 0b58 00000000 		.word	0
 1100 0b5c 00000000 		.word	0
 1101 0b60 00000000 		.word	0
 1102 0b64 00000000 		.word	0
 1103 0b68 00000000 		.word	0
 1104 0b6c 00000000 		.word	0
 1105 0b70 00000000 		.word	0
 1106 0b74 00000000 		.word	0
 1107 0b78 00000000 		.word	0
ARM GAS  /tmp/cch6bb4i.s 			page 22


 1108 0b7c 00000000 		.word	0
 1109 0b80 00000000 		.word	0
 1110 0b84 00000000 		.word	0
 1111 0b88 00000000 		.word	0
 1112 0b8c 00000000 		.word	0
 1113 0b90 00000000 		.word	0
 1114 0b94 00000000 		.word	0
 1115 0b98 00000000 		.word	0
 1116 0b9c 00000000 		.word	0
 1117 0ba0 00000000 		.word	0
 1118 0ba4 00000000 		.word	0
 1119 0ba8 00000000 		.word	0
 1120 0bac 00000000 		.word	0
 1121 0bb0 00000000 		.word	0
 1122 0bb4 00000000 		.word	0
 1123 0bb8 00000000 		.word	0
 1124 0bbc 00000000 		.word	0
 1125 0bc0 00000000 		.word	0
 1126 0bc4 00000000 		.word	0
 1127 0bc8 00000000 		.word	0
 1128 0bcc 00000000 		.word	0
 1129 0bd0 00000000 		.word	0
 1130 0bd4 00000000 		.word	0
 1131 0bd8 00000000 		.word	0
 1132 0bdc 00000000 		.word	0
 1133 0be0 00000000 		.word	0
 1134 0be4 00000000 		.word	0
 1135 0be8 00000000 		.word	0
 1136 0bec 00000000 		.word	0
 1137 0bf0 00000000 		.word	0
 1138 0bf4 00000000 		.word	0
 1139 0bf8 00000000 		.word	0
 1140 0bfc 00000000 		.word	0
 1141 0c00 00000000 		.word	0
 1142 0c04 00000000 		.word	0
 1143 0c08 00000000 		.word	0
 1144 0c0c 00000000 		.word	0
 1145 0c10 00000000 		.word	0
 1146 0c14 00000000 		.word	0
 1147 0c18 00000000 		.word	0
 1148 0c1c 00000000 		.word	0
 1149 0c20 00000000 		.word	0
 1150 0c24 00000000 		.word	0
 1151 0c28 00000000 		.word	0
 1152 0c2c 00000000 		.word	0
 1153 0c30 00000000 		.word	0
 1154 0c34 00000000 		.word	0
 1155 0c38 00000000 		.word	0
 1156 0c3c 00000000 		.word	0
 1157              		.text
 1158              	.Letext0:
 1159              		.file 2 "../output/model.h"
ARM GAS  /tmp/cch6bb4i.s 			page 23


DEFINED SYMBOLS
                            *ABS*:00000000 neural_main.c
     /tmp/cch6bb4i.s:21     .text.delay_ms:00000000 $t
     /tmp/cch6bb4i.s:27     .text.delay_ms:00000000 delay_ms
     /tmp/cch6bb4i.s:72     .text.setup_gpio:00000000 $t
     /tmp/cch6bb4i.s:78     .text.setup_gpio:00000000 setup_gpio
     /tmp/cch6bb4i.s:109    .text.setup_gpio:00000024 $d
     /tmp/cch6bb4i.s:115    .text.led_on:00000000 $t
     /tmp/cch6bb4i.s:121    .text.led_on:00000000 led_on
     /tmp/cch6bb4i.s:138    .text.led_on:00000008 $d
     /tmp/cch6bb4i.s:143    .text.led_off:00000000 $t
     /tmp/cch6bb4i.s:149    .text.led_off:00000000 led_off
     /tmp/cch6bb4i.s:166    .text.led_off:0000000c $d
     /tmp/cch6bb4i.s:171    .text.led_blink:00000000 $t
     /tmp/cch6bb4i.s:177    .text.led_blink:00000000 led_blink
     /tmp/cch6bb4i.s:232    .text.main_program:00000000 $t
     /tmp/cch6bb4i.s:238    .text.main_program:00000000 main_program
     /tmp/cch6bb4i.s:335    .text.main_program:00000058 $d
     /tmp/cch6bb4i.s:372    .rodata.test_digit:00000000 test_digit
     /tmp/cch6bb4i.s:341    .text.Reset_Handler:00000000 $t
     /tmp/cch6bb4i.s:347    .text.Reset_Handler:00000000 Reset_Handler
     /tmp/cch6bb4i.s:365    .isr_vector:00000000 vector_table
     /tmp/cch6bb4i.s:362    .isr_vector:00000000 $d
     /tmp/cch6bb4i.s:369    .rodata.test_digit:00000000 $d

UNDEFINED SYMBOLS
predict
